; ModuleID = 'source-C-CXX/55/310.c'
source_filename = "source-C-CXX/55/310.c"
target datalayout = "e-m:e-p270:32:32-p271:32:32-p272:64:64-i64:64-f80:128-n8:16:32:64-S128"
target triple = "x86_64-pc-linux-gnu"

@.str = private unnamed_addr constant [3 x i8] c"%d\00", align 1

; Function Attrs: nofree nounwind sspstrong uwtable
define dso_local i32 @main(i32 %0, i8** nocapture readnone %1) local_unnamed_addr #0 {
  %3 = alloca i32, align 4
  %4 = alloca [5 x i32], align 16
  %5 = bitcast i32* %3 to i8*
  call void @llvm.lifetime.start.p0i8(i64 4, i8* nonnull %5) #4
  %6 = bitcast [5 x i32]* %4 to i8*
  call void @llvm.lifetime.start.p0i8(i64 20, i8* nonnull %6) #4
  call void @llvm.memset.p0i8.i64(i8* noundef nonnull align 16 dereferenceable(20) %6, i8 -1, i64 20, i1 false)
  %7 = call i32 (i8*, ...) @__isoc99_scanf(i8* getelementptr inbounds ([3 x i8], [3 x i8]* @.str, i64 0, i64 0), i32* nonnull %3)
  %8 = load i32, i32* %3, align 4, !tbaa !5
  %9 = icmp sgt i32 %8, 1
  br i1 %9, label %14, label %25

10:                                               ; preds = %14
  %11 = getelementptr inbounds [5 x i32], [5 x i32]* %4, i64 0, i64 0
  %12 = load i32, i32* %11, align 16, !tbaa !5
  %13 = icmp eq i32 %12, -1
  br i1 %13, label %25, label %23

14:                                               ; preds = %2, %14
  %15 = phi i64 [ %21, %14 ], [ 0, %2 ]
  %16 = phi i32 [ %17, %14 ], [ 1, %2 ]
  %17 = mul nsw i32 %16, 10
  %18 = srem i32 %8, %17
  %19 = sdiv i32 %18, %16
  %20 = getelementptr inbounds [5 x i32], [5 x i32]* %4, i64 0, i64 %15
  store i32 %19, i32* %20, align 4, !tbaa !5
  %21 = add nuw i64 %15, 1
  %22 = icmp slt i32 %17, %8
  br i1 %22, label %14, label %10, !llvm.loop !9

23:                                               ; preds = %10
  %24 = call i32 (i8*, ...) @printf(i8* nonnull dereferenceable(1) getelementptr inbounds ([3 x i8], [3 x i8]* @.str, i64 0, i64 0), i32 %12)
  br label %25

25:                                               ; preds = %2, %10, %23
  %26 = getelementptr inbounds [5 x i32], [5 x i32]* %4, i64 0, i64 1
  %27 = load i32, i32* %26, align 4, !tbaa !5
  %28 = icmp eq i32 %27, -1
  br i1 %28, label %31, label %29

29:                                               ; preds = %25
  %30 = call i32 (i8*, ...) @printf(i8* nonnull dereferenceable(1) getelementptr inbounds ([3 x i8], [3 x i8]* @.str, i64 0, i64 0), i32 %27)
  br label %31

31:                                               ; preds = %29, %25
  %32 = getelementptr inbounds [5 x i32], [5 x i32]* %4, i64 0, i64 2
  %33 = load i32, i32* %32, align 8, !tbaa !5
  %34 = icmp eq i32 %33, -1
  br i1 %34, label %37, label %35

35:                                               ; preds = %31
  %36 = call i32 (i8*, ...) @printf(i8* nonnull dereferenceable(1) getelementptr inbounds ([3 x i8], [3 x i8]* @.str, i64 0, i64 0), i32 %33)
  br label %37

37:                                               ; preds = %35, %31
  %38 = getelementptr inbounds [5 x i32], [5 x i32]* %4, i64 0, i64 3
  %39 = load i32, i32* %38, align 4, !tbaa !5
  %40 = icmp eq i32 %39, -1
  br i1 %40, label %43, label %41

41:                                               ; preds = %37
  %42 = call i32 (i8*, ...) @printf(i8* nonnull dereferenceable(1) getelementptr inbounds ([3 x i8], [3 x i8]* @.str, i64 0, i64 0), i32 %39)
  br label %43

43:                                               ; preds = %41, %37
  %44 = getelementptr inbounds [5 x i32], [5 x i32]* %4, i64 0, i64 4
  %45 = load i32, i32* %44, align 16, !tbaa !5
  %46 = icmp eq i32 %45, -1
  br i1 %46, label %49, label %47

47:                                               ; preds = %43
  %48 = call i32 (i8*, ...) @printf(i8* nonnull dereferenceable(1) getelementptr inbounds ([3 x i8], [3 x i8]* @.str, i64 0, i64 0), i32 %45)
  br label %49

49:                                               ; preds = %47, %43
  call void @llvm.lifetime.end.p0i8(i64 20, i8* nonnull %6) #4
  call void @llvm.lifetime.end.p0i8(i64 4, i8* nonnull %5) #4
  ret i32 0
}

; Function Attrs: argmemonly mustprogress nofree nosync nounwind willreturn
declare void @llvm.lifetime.start.p0i8(i64 immarg, i8* nocapture) #1

; Function Attrs: nofree nounwind
declare noundef i32 @__isoc99_scanf(i8* nocapture noundef readonly, ...) local_unnamed_addr #2

; Function Attrs: nofree nounwind
declare noundef i32 @printf(i8* nocapture noundef readonly, ...) local_unnamed_addr #2

; Function Attrs: argmemonly mustprogress nofree nosync nounwind willreturn
declare void @llvm.lifetime.end.p0i8(i64 immarg, i8* nocapture) #1

; Function Attrs: argmemonly nofree nounwind willreturn writeonly
declare void @llvm.memset.p0i8.i64(i8* nocapture writeonly, i8, i64, i1 immarg) #3


!llvm.module.flags = !{!0, !1, !2, !3}
!llvm.ident = !{!4}

!0 = !{i32 1, !"wchar_size", i32 4}
!1 = !{i32 7, !"PIC Level", i32 2}
!2 = !{i32 7, !"PIE Level", i32 2}
!3 = !{i32 7, !"uwtable", i32 1}
!4 = !{!"clang version 13.0.0"}
!5 = !{!6, !6, i64 0}
!6 = !{!"int", !7, i64 0}
!7 = !{!"omnipotent char", !8, i64 0}
!8 = !{!"Simple C/C++ TBAA"}
!9 = distinct !{!9, !10}
!10 = !{!"llvm.loop.mustprogress"}
